target datalayout = "e-m:e-p270:32:32-p271:32:32-p272:64:64-i64:64-i128:128-f80:128-n8:16:32:64-S128"
target triple = "x86_64-pc-linux-gnu"

%struct.Vmem = type { ptr, i64, i64 }
%struct.GenContext_ = type { i8, ptr, ptr, ptr, ptr, ptr, ptr, ptr, ptr, ptr, ptr, ptr, ptr, ptr, ptr, ptr, ptr, ptr, ptr, ptr, ptr, ptr, ptr, ptr, ptr, ptr, ptr, ptr, ptr, ptr, ptr, ptr, ptr, %struct.anon.85, i32, i32, %struct.DebugContext, ptr, ptr, ptr, %struct.BEValue, i8, %union.SourceSpan, ptr, ptr, ptr, ptr }
%struct.anon.85 = type { ptr, ptr, ptr }
%struct.DebugContext = type { i16, ptr, ptr, %struct.DebugFile_, ptr, ptr, ptr, ptr }
%struct.DebugFile_ = type { i16, ptr }
%struct.BEValue = type { i8, i32, ptr, ptr, ptr }
%union.SourceSpan = type { i64 }
%struct.Expr_ = type { ptr, %union.SourceSpan, i16, %union.anon.29 }
%union.anon.29 = type { %struct.ExprAnySwitch }
%struct.ExprAnySwitch = type { i8, %union.anon.31 }
%union.anon.31 = type { %struct.anon.32 }
%struct.anon.32 = type { ptr, %union.SourceSpan, ptr }
%struct.ExprBinary = type { i32, i32, i8 }
%struct.ExprUnary = type { ptr, i8 }

@expr_arena = external global %struct.Vmem, align 8

; Function Attrs: nounwind uwtable
define internal ptr @exprptr(i32 noundef %0) #0 {
  %2 = alloca i32, align 4
  store i32 %0, ptr %2, align 4
  %3 = load ptr, ptr @expr_arena, align 8
  %4 = load i32, ptr %2, align 4
  %5 = zext i32 %4 to i64
  %6 = getelementptr inbounds %struct.Expr_, ptr %3, i64 %5
  ret ptr %6
}

; Function Attrs: nounwind uwtable
define internal void @llvm_emit_assume(ptr noundef %0, ptr noundef %1) #0 {
  %3 = alloca ptr, align 8
  %4 = alloca ptr, align 8
  %5 = alloca ptr, align 8
  %6 = alloca ptr, align 8
  %7 = alloca ptr, align 8
  %8 = alloca %struct.BEValue, align 8
  store ptr %0, ptr %3, align 8
  store ptr %1, ptr %4, align 8
  %9 = load ptr, ptr %4, align 8
  %10 = getelementptr inbounds %struct.Expr_, ptr %9, i32 0, i32 2
  %11 = load i16, ptr %10, align 8
  %12 = and i16 %11, 255
  %13 = zext i16 %12 to i32
  %14 = icmp eq i32 %13, 3
  br i1 %14, label %15, label %35

15:                                               ; preds = %2
  %16 = load ptr, ptr %4, align 8
  %17 = getelementptr inbounds %struct.Expr_, ptr %16, i32 0, i32 3
  %18 = getelementptr inbounds %struct.ExprBinary, ptr %17, i32 0, i32 2
  %19 = load i8, ptr %18, align 8
  %20 = zext i8 %19 to i32
  %21 = icmp eq i32 %20, 11
  br i1 %21, label %22, label %35

22:                                               ; preds = %15
  %23 = load ptr, ptr %3, align 8
  %24 = load ptr, ptr %4, align 8
  %25 = getelementptr inbounds %struct.Expr_, ptr %24, i32 0, i32 3
  %26 = getelementptr inbounds %struct.ExprBinary, ptr %25, i32 0, i32 0
  %27 = load i32, ptr %26, align 8
  %28 = call ptr @exprptr(i32 noundef %27)
  call void @llvm_emit_assume(ptr noundef %23, ptr noundef %28)
  %29 = load ptr, ptr %3, align 8
  %30 = load ptr, ptr %4, align 8
  %31 = getelementptr inbounds %struct.Expr_, ptr %30, i32 0, i32 3
  %32 = getelementptr inbounds %struct.ExprBinary, ptr %31, i32 0, i32 1
  %33 = load i32, ptr %32, align 4
  %34 = call ptr @exprptr(i32 noundef %33)
  call void @llvm_emit_assume(ptr noundef %29, ptr noundef %34)
  br label %115

35:                                               ; preds = %15, %2
  %36 = load ptr, ptr %4, align 8
  %37 = getelementptr inbounds %struct.Expr_, ptr %36, i32 0, i32 2
  %38 = load i16, ptr %37, align 8
  %39 = and i16 %38, 255
  %40 = zext i16 %39 to i32
  %41 = icmp eq i32 %40, 63
  br i1 %41, label %42, label %91

42:                                               ; preds = %35
  %43 = load ptr, ptr %4, align 8
  %44 = getelementptr inbounds %struct.Expr_, ptr %43, i32 0, i32 3
  %45 = getelementptr inbounds %struct.ExprUnary, ptr %44, i32 0, i32 1
  %46 = load i8, ptr %45, align 8
  %47 = zext i8 %46 to i32
  %48 = icmp eq i32 %47, 6
  br i1 %48, label %49, label %91

49:                                               ; preds = %42
  %50 = load ptr, ptr %4, align 8
  %51 = getelementptr inbounds %struct.Expr_, ptr %50, i32 0, i32 3
  %52 = getelementptr inbounds %struct.ExprUnary, ptr %51, i32 0, i32 0
  %53 = load ptr, ptr %52, align 8
  store ptr %53, ptr %5, align 8
  %54 = load ptr, ptr %5, align 8
  %55 = getelementptr inbounds %struct.Expr_, ptr %54, i32 0, i32 2
  %56 = load i16, ptr %55, align 8
  %57 = and i16 %56, 255
  %58 = zext i16 %57 to i32
  %59 = icmp eq i32 %58, 3
  br i1 %59, label %60, label %90

60:                                               ; preds = %49
  %61 = load ptr, ptr %5, align 8
  %62 = getelementptr inbounds %struct.Expr_, ptr %61, i32 0, i32 3
  %63 = getelementptr inbounds %struct.ExprBinary, ptr %62, i32 0, i32 2
  %64 = load i8, ptr %63, align 8
  %65 = zext i8 %64 to i32
  %66 = icmp eq i32 %65, 12
  br i1 %66, label %67, label %90

67:                                               ; preds = %60
  %68 = load ptr, ptr %5, align 8
  %69 = getelementptr inbounds %struct.Expr_, ptr %68, i32 0, i32 3
  %70 = getelementptr inbounds %struct.ExprBinary, ptr %69, i32 0, i32 0
  %71 = load i32, ptr %70, align 8
  %72 = call ptr @exprptr(i32 noundef %71)
  store ptr %72, ptr %6, align 8
  %73 = load ptr, ptr %5, align 8
  %74 = getelementptr inbounds %struct.Expr_, ptr %73, i32 0, i32 3
  %75 = getelementptr inbounds %struct.ExprBinary, ptr %74, i32 0, i32 1
  %76 = load i32, ptr %75, align 4
  %77 = call ptr @exprptr(i32 noundef %76)
  store ptr %77, ptr %7, align 8
  %78 = load ptr, ptr %6, align 8
  %79 = load ptr, ptr %4, align 8
  %80 = getelementptr inbounds %struct.Expr_, ptr %79, i32 0, i32 3
  %81 = getelementptr inbounds %struct.ExprUnary, ptr %80, i32 0, i32 0
  store ptr %78, ptr %81, align 8
  %82 = load ptr, ptr %3, align 8
  %83 = load ptr, ptr %4, align 8
  call void @llvm_emit_assume(ptr noundef %82, ptr noundef %83)
  %84 = load ptr, ptr %7, align 8
  %85 = load ptr, ptr %4, align 8
  %86 = getelementptr inbounds %struct.Expr_, ptr %85, i32 0, i32 3
  %87 = getelementptr inbounds %struct.ExprUnary, ptr %86, i32 0, i32 0
  store ptr %84, ptr %87, align 8
  %88 = load ptr, ptr %3, align 8
  %89 = load ptr, ptr %4, align 8
  call void @llvm_emit_assume(ptr noundef %88, ptr noundef %89)
  br label %115

90:                                               ; preds = %60, %49
  br label %91

91:                                               ; preds = %90, %42, %35
  %92 = load ptr, ptr %4, align 8
  %93 = call zeroext i1 @expr_is_pure(ptr noundef %92)
  br i1 %93, label %94, label %115

94:                                               ; preds = %91
  %95 = load ptr, ptr %3, align 8
  %96 = load ptr, ptr %4, align 8
  call void @llvm_emit_expr(ptr noundef %95, ptr noundef %8, ptr noundef %96)
  %97 = load ptr, ptr %3, align 8
  call void @llvm_value_rvalue(ptr noundef %97, ptr noundef %8)
  br label %98

98:                                               ; preds = %94
  %99 = load ptr, ptr %3, align 8
  %100 = getelementptr inbounds %struct.GenContext_, ptr %99, i32 0, i32 36
  %101 = getelementptr inbounds %struct.DebugContext, ptr %100, i32 0, i32 1
  %102 = load ptr, ptr %101, align 8
  %103 = icmp ne ptr %102, null
  br i1 %103, label %104, label %110

104:                                              ; preds = %98
  %105 = load ptr, ptr %3, align 8
  %106 = load ptr, ptr %4, align 8
  %107 = getelementptr inbounds %struct.Expr_, ptr %106, i32 0, i32 1
  %108 = getelementptr inbounds %union.SourceSpan, ptr %107, i32 0, i32 0
  %109 = load i64, ptr %108, align 8
  call void @llvm_emit_debug_location(ptr noundef %105, i64 %109)
  br label %110

110:                                              ; preds = %104, %98
  br label %111

111:                                              ; preds = %110
  %112 = load ptr, ptr %3, align 8
  %113 = getelementptr inbounds %struct.BEValue, ptr %8, i32 0, i32 3
  %114 = load ptr, ptr %113, align 8
  call void @llvm_emit_assume_raw(ptr noundef %112, ptr noundef %114)
  br label %115

115:                                              ; preds = %111, %91, %67, %22
  ret void
}