; Function Attrs: nounwind uwtable
define internal fastcc void @llvm_emit_assume(ptr noundef %0, ptr noundef %1) unnamed_addr #0 {
  %3 = alloca %struct.BEValue, align 8
  br label %tailrecurse.outer

tailrecurse.outer:                                ; preds = %11, %2
  %.tr29.ph = phi ptr [ %20, %11 ], [ %1, %2 ]
  %4 = getelementptr inbounds i8, ptr %.tr29.ph, i64 16
  %5 = getelementptr inbounds i8, ptr %.tr29.ph, i64 24
  %6 = getelementptr inbounds i8, ptr %.tr29.ph, i64 32
  br label %tailrecurse

tailrecurse:                                      ; preds = %tailrecurse.outer, %34
  %7 = load i16, ptr %4, align 8
  %trunc = trunc i16 %7 to i8
  switch i8 %trunc, label %.thread [
    i8 3, label %8
    i8 63, label %21
  ]

8:                                                ; preds = %tailrecurse
  %9 = load i8, ptr %6, align 8
  %10 = icmp eq i8 %9, 11
  br i1 %10, label %11, label %.thread

11:                                               ; preds = %8
  %12 = load i32, ptr %5, align 8
  %13 = load ptr, ptr @expr_arena, align 8
  %14 = zext i32 %12 to i64
  %15 = getelementptr inbounds %struct.Expr_, ptr %13, i64 %14
  tail call fastcc void @llvm_emit_assume(ptr noundef %0, ptr noundef %15)
  %16 = getelementptr inbounds i8, ptr %.tr29.ph, i64 28
  %17 = load i32, ptr %16, align 4
  %18 = load ptr, ptr @expr_arena, align 8
  %19 = zext i32 %17 to i64
  %20 = getelementptr inbounds %struct.Expr_, ptr %18, i64 %19
  br label %tailrecurse.outer

21:                                               ; preds = %tailrecurse
  %22 = load i8, ptr %6, align 8
  %23 = icmp eq i8 %22, 6
  br i1 %23, label %24, label %.thread

24:                                               ; preds = %21
  %25 = load ptr, ptr %5, align 8
  %26 = getelementptr inbounds i8, ptr %25, i64 16
  %27 = load i16, ptr %26, align 8
  %28 = and i16 %27, 255
  %29 = icmp eq i16 %28, 3
  br i1 %29, label %30, label %.thread

30:                                               ; preds = %24
  %31 = getelementptr inbounds i8, ptr %25, i64 32
  %32 = load i8, ptr %31, align 8
  %33 = icmp eq i8 %32, 12
  br i1 %33, label %34, label %.thread

34:                                               ; preds = %30
  %35 = getelementptr inbounds i8, ptr %25, i64 24
  %36 = load i32, ptr %35, align 8
  %37 = load ptr, ptr @expr_arena, align 8
  %38 = zext i32 %36 to i64
  %39 = getelementptr inbounds %struct.Expr_, ptr %37, i64 %38
  %40 = getelementptr inbounds i8, ptr %25, i64 28
  %41 = load i32, ptr %40, align 4
  %42 = zext i32 %41 to i64
  %43 = getelementptr inbounds %struct.Expr_, ptr %37, i64 %42
  store ptr %39, ptr %5, align 8
  tail call fastcc void @llvm_emit_assume(ptr noundef %0, ptr noundef nonnull %.tr29.ph)
  store ptr %43, ptr %5, align 8
  br label %tailrecurse

.thread:                                          ; preds = %8, %tailrecurse, %24, %30, %21
  %44 = tail call zeroext i1 @expr_is_pure(ptr noundef nonnull %.tr29.ph) #9
  br i1 %44, label %45, label %54

45:                                               ; preds = %.thread
  call void @llvm_emit_expr(ptr noundef %0, ptr noundef nonnull %3, ptr noundef nonnull %.tr29.ph) #9
  call void @llvm_value_rvalue(ptr noundef %0, ptr noundef nonnull %3) #9
  %46 = getelementptr inbounds i8, ptr %0, i64 304
  %47 = load ptr, ptr %46, align 8
  %.not = icmp eq ptr %47, null
  br i1 %.not, label %51, label %48

48:                                               ; preds = %45
  %49 = getelementptr inbounds i8, ptr %.tr29.ph, i64 8
  %50 = load i64, ptr %49, align 8
  call void @llvm_emit_debug_location(ptr noundef nonnull %0, i64 %50) #9
  br label %51

51:                                               ; preds = %45, %48
  %52 = getelementptr inbounds i8, ptr %3, i64 16
  %53 = load ptr, ptr %52, align 8
  call void @llvm_emit_assume_raw(ptr noundef nonnull %0, ptr noundef %53) #9
  br label %54

54:                                               ; preds = %51, %.thread
  ret void
}